; Function Attrs: nounwind uwtable
define internal noalias noundef ptr @H5C__epoch_marker_deserialize(ptr readnone captures(none) %0, i64 %1, ptr readnone captures(none) %2, ptr readnone captures(none) %3) #0 {
  %5 = load i8, ptr @H5C_init_g, align 1, !tbaa !3, !range !7, !noundef !8
  %6 = trunc nuw i8 %5 to i1
  %7 = load i8, ptr @H5_libterm_g, align 1, !range !7
  %8 = trunc nuw i8 %7 to i1
  %9 = xor i1 %8, true
  %10 = select i1 %6, i1 true, i1 %9
  br i1 %10, label %11, label %15, !prof !9

11:                                               ; preds = %4
  %12 = load i64, ptr @H5E_CACHE_g, align 8, !tbaa !10
  %13 = load i64, ptr @H5E_SYSTEM_g, align 8, !tbaa !10
  %14 = tail call i32 (ptr, ptr, i32, i64, i64, ptr, ...) @H5E_printf_stack(ptr noundef nonnull @.str.1, ptr noundef nonnull @__func__.H5C__epoch_marker_deserialize, i32 noundef 148, i64 noundef %12, i64 noundef %13, ptr noundef nonnull @.str.2) #2
  br label %15

15:                                               ; preds = %11, %4
  ret ptr null
}